; Function Attrs: null_pointer_is_valid sspstrong uwtable
define internal i32 @dissect_ndr_nt_PSID_no_hf(ptr noundef %0, i32 noundef %1, ptr noundef %2, ptr noundef %3, ptr noundef %4, ptr noundef %5) #0 {
  %7 = alloca ptr, align 8
  call void @llvm.lifetime.start.p0(i64 8, ptr nonnull %7) #9
  %8 = load i32, ptr @ett_nt_sid_pointer, align 4
  %9 = call ptr @proto_tree_add_subtree(ptr noundef %3, ptr noundef %0, i32 noundef %1, i32 noundef -1, i32 noundef %8, ptr noundef nonnull %7, ptr noundef nonnull @.str.17)
  %10 = load i32, ptr @hf_nt_domain_sid, align 4
  %11 = call i32 @dissect_ndr_pointer_cb(ptr noundef %0, i32 noundef %1, ptr noundef %2, ptr noundef %9, ptr noundef %4, ptr noundef %5, ptr noundef nonnull @dissect_ndr_nt_SID_hf_through_ptr, i32 noundef 2, ptr noundef nonnull @.str.17, i32 noundef %10, ptr noundef null, ptr noundef null)
  %12 = load ptr, ptr %7, align 8
  %13 = sub i32 %11, %1
  call void @proto_item_set_len(ptr noundef %12, i32 noundef %13)
  call void @llvm.lifetime.end.p0(i64 8, ptr nonnull %7) #9
  ret i32 %11
}